; ModuleID = 'source-C-CXX/25/1253.c'
source_filename = "source-C-CXX/25/1253.c"
target datalayout = "e-m:e-p270:32:32-p271:32:32-p272:64:64-i64:64-f80:128-n8:16:32:64-S128"
target triple = "x86_64-pc-linux-gnu"

; Function Attrs: nounwind sspstrong uwtable
define dso_local i32 @main() local_unnamed_addr #0 {
  %1 = alloca [100 x i8], align 16
  %2 = getelementptr inbounds [100 x i8], [100 x i8]* %1, i64 0, i64 0
  call void @llvm.lifetime.start.p0i8(i64 100, i8* nonnull %2) #4
  %3 = call i32 (i8*, ...) bitcast (i32 (...)* @gets to i32 (i8*, ...)*)(i8* nonnull %2) #4
  br label %4

4:                                                ; preds = %25, %0
  %5 = phi i32 [ 0, %0 ], [ %27, %25 ]
  %6 = sext i32 %5 to i64
  %7 = getelementptr inbounds [100 x i8], [100 x i8]* %1, i64 0, i64 %6
  %8 = load i8, i8* %7, align 1, !tbaa !5
  switch i8 %8, label %25 [
    i8 0, label %9
    i8 32, label %11
  ]

9:                                                ; preds = %4
  %10 = call i32 @puts(i8* nonnull %2)
  call void @llvm.lifetime.end.p0i8(i64 100, i8* nonnull %2) #4
  ret i32 0

11:                                               ; preds = %4
  %12 = add nsw i32 %5, -1
  %13 = sext i32 %12 to i64
  %14 = getelementptr inbounds [100 x i8], [100 x i8]* %1, i64 0, i64 %13
  %15 = load i8, i8* %14, align 1, !tbaa !5
  %16 = icmp eq i8 %15, 32
  br i1 %16, label %17, label %25

17:                                               ; preds = %11, %17
  %18 = phi i64 [ %20, %17 ], [ %6, %11 ]
  %19 = phi i8* [ %21, %17 ], [ %7, %11 ]
  %20 = add nsw i64 %18, 1
  %21 = getelementptr inbounds [100 x i8], [100 x i8]* %1, i64 0, i64 %20
  %22 = load i8, i8* %21, align 1, !tbaa !5
  store i8 %22, i8* %19, align 1, !tbaa !5
  %23 = load i8, i8* %21, align 1, !tbaa !5
  %24 = icmp eq i8 %23, 0
  br i1 %24, label %25, label %17, !llvm.loop !8

25:                                               ; preds = %17, %4, %11
  %26 = phi i32 [ %5, %11 ], [ %5, %4 ], [ %12, %17 ]
  %27 = add nsw i32 %26, 1
  br label %4, !llvm.loop !10
}

; Function Attrs: argmemonly mustprogress nofree nosync nounwind willreturn
declare void @llvm.lifetime.start.p0i8(i64 immarg, i8* nocapture) #1

declare i32 @gets(...) local_unnamed_addr #2

; Function Attrs: argmemonly mustprogress nofree nosync nounwind willreturn
declare void @llvm.lifetime.end.p0i8(i64 immarg, i8* nocapture) #1

; Function Attrs: nofree nounwind
declare noundef i32 @puts(i8* nocapture noundef readonly) local_unnamed_addr #3


!llvm.module.flags = !{!0, !1, !2, !3}
!llvm.ident = !{!4}

!0 = !{i32 1, !"wchar_size", i32 4}
!1 = !{i32 7, !"PIC Level", i32 2}
!2 = !{i32 7, !"PIE Level", i32 2}
!3 = !{i32 7, !"uwtable", i32 1}
!4 = !{!"clang version 13.0.0"}
!5 = !{!6, !6, i64 0}
!6 = !{!"omnipotent char", !7, i64 0}
!7 = !{!"Simple C/C++ TBAA"}
!8 = distinct !{!8, !9}
!9 = !{!"llvm.loop.mustprogress"}
!10 = distinct !{!10, !9}
